; ModuleID = '32/1934.c'
source_filename = "32/1934.c"
target datalayout = "e-m:e-p270:32:32-p271:32:32-p272:64:64-i64:64-f80:128-n8:16:32:64-S128"
target triple = "x86_64-pc-linux-gnu"

@.str = private unnamed_addr constant [3 x i8] c"%d\00", align 1
@.str.1 = private unnamed_addr constant [3 x i8] c"%s\00", align 1
@.str.2 = private unnamed_addr constant [2 x i8] c"0\00", align 1
@.str.3 = private unnamed_addr constant [2 x i8] c"\0A\00", align 1

; Function Attrs: noinline nounwind uwtable
define dso_local i32 @main() #0 {
  %1 = alloca i32, align 4
  %2 = alloca i32, align 4
  %3 = alloca i32, align 4
  %4 = alloca i32, align 4
  %5 = alloca i32, align 4
  %6 = alloca i32, align 4
  %7 = alloca i32, align 4
  %8 = alloca i32, align 4
  %9 = alloca [410 x i8], align 16
  %10 = alloca [410 x i8], align 16
  %11 = alloca [410 x i32], align 16
  %12 = alloca [410 x i32], align 16
  %13 = alloca [410 x i32], align 16
  store i32 0, i32* %1, align 4
  %14 = call i32 (i8*, ...) @__isoc99_scanf(i8* getelementptr inbounds ([3 x i8], [3 x i8]* @.str, i64 0, i64 0), i32* %2)
  store i32 1, i32* %6, align 4
  br label %15

15:                                               ; preds = %158, %0
  %16 = load i32, i32* %6, align 4
  %17 = load i32, i32* %2, align 4
  %18 = icmp sle i32 %16, %17
  br i1 %18, label %19, label %161

19:                                               ; preds = %15
  %20 = getelementptr inbounds [410 x i8], [410 x i8]* %9, i64 0, i64 0
  %21 = call i32 (i8*, ...) @__isoc99_scanf(i8* getelementptr inbounds ([3 x i8], [3 x i8]* @.str.1, i64 0, i64 0), i8* %20)
  %22 = getelementptr inbounds [410 x i8], [410 x i8]* %10, i64 0, i64 0
  %23 = call i32 (i8*, ...) @__isoc99_scanf(i8* getelementptr inbounds ([3 x i8], [3 x i8]* @.str.1, i64 0, i64 0), i8* %22)
  %24 = getelementptr inbounds [410 x i32], [410 x i32]* %11, i64 0, i64 0
  %25 = bitcast i32* %24 to i8*
  call void @llvm.memset.p0i8.i64(i8* align 16 %25, i8 0, i64 1640, i1 false)
  %26 = getelementptr inbounds [410 x i32], [410 x i32]* %12, i64 0, i64 0
  %27 = bitcast i32* %26 to i8*
  call void @llvm.memset.p0i8.i64(i8* align 16 %27, i8 0, i64 1640, i1 false)
  store i32 0, i32* %7, align 4
  store i32 0, i32* %8, align 4
  %28 = getelementptr inbounds [410 x i8], [410 x i8]* %9, i64 0, i64 0
  %29 = call i64 @strlen(i8* %28) #4
  %30 = trunc i64 %29 to i32
  store i32 %30, i32* %4, align 4
  %31 = getelementptr inbounds [410 x i8], [410 x i8]* %10, i64 0, i64 0
  %32 = call i64 @strlen(i8* %31) #4
  %33 = trunc i64 %32 to i32
  store i32 %33, i32* %5, align 4
  store i32 0, i32* %3, align 4
  br label %34

34:                                               ; preds = %51, %19
  %35 = load i32, i32* %3, align 4
  %36 = load i32, i32* %4, align 4
  %37 = sub nsw i32 %36, 1
  %38 = icmp sle i32 %35, %37
  br i1 %38, label %39, label %54

39:                                               ; preds = %34
  %40 = load i32, i32* %4, align 4
  %41 = sub nsw i32 %40, 1
  %42 = load i32, i32* %3, align 4
  %43 = sub nsw i32 %41, %42
  %44 = sext i32 %43 to i64
  %45 = getelementptr inbounds [410 x i8], [410 x i8]* %9, i64 0, i64 %44
  %46 = load i8, i8* %45, align 1
  %47 = call i32 @num(i8 signext %46)
  %48 = load i32, i32* %3, align 4
  %49 = sext i32 %48 to i64
  %50 = getelementptr inbounds [410 x i32], [410 x i32]* %11, i64 0, i64 %49
  store i32 %47, i32* %50, align 4
  br label %51

51:                                               ; preds = %39
  %52 = load i32, i32* %3, align 4
  %53 = add nsw i32 %52, 1
  store i32 %53, i32* %3, align 4
  br label %34

54:                                               ; preds = %34
  store i32 0, i32* %3, align 4
  br label %55

55:                                               ; preds = %72, %54
  %56 = load i32, i32* %3, align 4
  %57 = load i32, i32* %5, align 4
  %58 = sub nsw i32 %57, 1
  %59 = icmp sle i32 %56, %58
  br i1 %59, label %60, label %75

60:                                               ; preds = %55
  %61 = load i32, i32* %5, align 4
  %62 = sub nsw i32 %61, 1
  %63 = load i32, i32* %3, align 4
  %64 = sub nsw i32 %62, %63
  %65 = sext i32 %64 to i64
  %66 = getelementptr inbounds [410 x i8], [410 x i8]* %10, i64 0, i64 %65
  %67 = load i8, i8* %66, align 1
  %68 = call i32 @num(i8 signext %67)
  %69 = load i32, i32* %3, align 4
  %70 = sext i32 %69 to i64
  %71 = getelementptr inbounds [410 x i32], [410 x i32]* %12, i64 0, i64 %70
  store i32 %68, i32* %71, align 4
  br label %72

72:                                               ; preds = %60
  %73 = load i32, i32* %3, align 4
  %74 = add nsw i32 %73, 1
  store i32 %74, i32* %3, align 4
  br label %55

75:                                               ; preds = %55
  store i32 0, i32* %3, align 4
  br label %76

76:                                               ; preds = %124, %75
  %77 = load i32, i32* %3, align 4
  %78 = icmp slt i32 %77, 410
  br i1 %78, label %79, label %127

79:                                               ; preds = %76
  %80 = load i32, i32* %3, align 4
  %81 = sext i32 %80 to i64
  %82 = getelementptr inbounds [410 x i32], [410 x i32]* %11, i64 0, i64 %81
  %83 = load i32, i32* %82, align 4
  %84 = load i32, i32* %3, align 4
  %85 = sext i32 %84 to i64
  %86 = getelementptr inbounds [410 x i32], [410 x i32]* %12, i64 0, i64 %85
  %87 = load i32, i32* %86, align 4
  %88 = sub nsw i32 %83, %87
  %89 = load i32, i32* %7, align 4
  %90 = sub nsw i32 %88, %89
  %91 = icmp sge i32 %90, 0
  br i1 %91, label %92, label %107

92:                                               ; preds = %79
  %93 = load i32, i32* %3, align 4
  %94 = sext i32 %93 to i64
  %95 = getelementptr inbounds [410 x i32], [410 x i32]* %11, i64 0, i64 %94
  %96 = load i32, i32* %95, align 4
  %97 = load i32, i32* %3, align 4
  %98 = sext i32 %97 to i64
  %99 = getelementptr inbounds [410 x i32], [410 x i32]* %12, i64 0, i64 %98
  %100 = load i32, i32* %99, align 4
  %101 = sub nsw i32 %96, %100
  %102 = load i32, i32* %7, align 4
  %103 = sub nsw i32 %101, %102
  %104 = load i32, i32* %3, align 4
  %105 = sext i32 %104 to i64
  %106 = getelementptr inbounds [410 x i32], [410 x i32]* %13, i64 0, i64 %105
  store i32 %103, i32* %106, align 4
  store i32 0, i32* %7, align 4
  br label %123

107:                                              ; preds = %79
  %108 = load i32, i32* %3, align 4
  %109 = sext i32 %108 to i64
  %110 = getelementptr inbounds [410 x i32], [410 x i32]* %11, i64 0, i64 %109
  %111 = load i32, i32* %110, align 4
  %112 = load i32, i32* %3, align 4
  %113 = sext i32 %112 to i64
  %114 = getelementptr inbounds [410 x i32], [410 x i32]* %12, i64 0, i64 %113
  %115 = load i32, i32* %114, align 4
  %116 = sub nsw i32 %111, %115
  %117 = load i32, i32* %7, align 4
  %118 = sub nsw i32 %116, %117
  %119 = add nsw i32 %118, 10
  %120 = load i32, i32* %3, align 4
  %121 = sext i32 %120 to i64
  %122 = getelementptr inbounds [410 x i32], [410 x i32]* %13, i64 0, i64 %121
  store i32 %119, i32* %122, align 4
  store i32 1, i32* %7, align 4
  br label %123

123:                                              ; preds = %107, %92
  br label %124

124:                                              ; preds = %123
  %125 = load i32, i32* %3, align 4
  %126 = add nsw i32 %125, 1
  store i32 %126, i32* %3, align 4
  br label %76

127:                                              ; preds = %76
  store i32 409, i32* %3, align 4
  br label %128

128:                                              ; preds = %148, %127
  %129 = load i32, i32* %3, align 4
  %130 = icmp sge i32 %129, 0
  br i1 %130, label %131, label %151

131:                                              ; preds = %128
  %132 = load i32, i32* %3, align 4
  %133 = sext i32 %132 to i64
  %134 = getelementptr inbounds [410 x i32], [410 x i32]* %13, i64 0, i64 %133
  %135 = load i32, i32* %134, align 4
  %136 = icmp ne i32 %135, 0
  br i1 %136, label %137, label %138

137:                                              ; preds = %131
  store i32 1, i32* %8, align 4
  br label %138

138:                                              ; preds = %137, %131
  %139 = load i32, i32* %8, align 4
  %140 = icmp eq i32 %139, 1
  br i1 %140, label %141, label %147

141:                                              ; preds = %138
  %142 = load i32, i32* %3, align 4
  %143 = sext i32 %142 to i64
  %144 = getelementptr inbounds [410 x i32], [410 x i32]* %13, i64 0, i64 %143
  %145 = load i32, i32* %144, align 4
  %146 = call i32 (i8*, ...) @printf(i8* getelementptr inbounds ([3 x i8], [3 x i8]* @.str, i64 0, i64 0), i32 %145)
  br label %147

147:                                              ; preds = %141, %138
  br label %148

148:                                              ; preds = %147
  %149 = load i32, i32* %3, align 4
  %150 = add nsw i32 %149, -1
  store i32 %150, i32* %3, align 4
  br label %128

151:                                              ; preds = %128
  %152 = load i32, i32* %8, align 4
  %153 = icmp eq i32 %152, 0
  br i1 %153, label %154, label %156

154:                                              ; preds = %151
  %155 = call i32 (i8*, ...) @printf(i8* getelementptr inbounds ([2 x i8], [2 x i8]* @.str.2, i64 0, i64 0))
  br label %156

156:                                              ; preds = %154, %151
  %157 = call i32 (i8*, ...) @printf(i8* getelementptr inbounds ([2 x i8], [2 x i8]* @.str.3, i64 0, i64 0))
  br label %158

158:                                              ; preds = %156
  %159 = load i32, i32* %6, align 4
  %160 = add nsw i32 %159, 1
  store i32 %160, i32* %6, align 4
  br label %15

161:                                              ; preds = %15
  ret i32 0
}

declare dso_local i32 @__isoc99_scanf(i8*, ...) #1

; Function Attrs: argmemonly nounwind willreturn
declare void @llvm.memset.p0i8.i64(i8* nocapture writeonly, i8, i64, i1 immarg) #2

; Function Attrs: nounwind readonly
declare dso_local i64 @strlen(i8*) #3

; Function Attrs: noinline nounwind uwtable
define dso_local i32 @num(i8 signext %0) #0 {
  %2 = alloca i8, align 1
  store i8 %0, i8* %2, align 1
  %3 = load i8, i8* %2, align 1
  %4 = sext i8 %3 to i32
  %5 = sub nsw i32 %4, 48
  ret i32 %5
}

declare dso_local i32 @printf(i8*, ...) #1


!llvm.module.flags = !{!0}
!llvm.ident = !{!1}

!0 = !{i32 1, !"wchar_size", i32 4}
!1 = !{!"clang version 10.0.0-4ubuntu1 "}
